; Function Attrs: nounwind uwtable
define noalias ptr @ASN1_STRING_type_new(i32 noundef %0) local_unnamed_addr #1 {
  %2 = tail call noalias ptr @CRYPTO_zalloc(i64 noundef 24, ptr noundef nonnull @.str, i32 noundef 355) #13
  %3 = icmp eq ptr %2, null
  br i1 %3, label %6, label %4

4:                                                ; preds = %1
  %5 = getelementptr inbounds nuw i8, ptr %2, i64 4
  store i32 %0, ptr %5, align 4, !tbaa !24
  br label %6

6:                                                ; preds = %1, %4
  ret ptr %2
}